target datalayout = "e-m:e-p270:32:32-p271:32:32-p272:64:64-i64:64-i128:128-f80:128-n8:16:32:64-S128"
target triple = "x86_64-pc-linux-gnu"

@.str = private unnamed_addr constant [13 x i8] c"connectivity\00", align 1
@.str.6 = private unnamed_addr constant [25 x i8] c"connection_state_updated\00", align 1
@.str.7 = private unnamed_addr constant [38 x i8] c"connectivity:connection_state_updated\00", align 1
@.str.8 = private unnamed_addr constant [6 x i8] c"state\00", align 1
@.str.29 = private unnamed_addr constant [20 x i8] c"handshake_confirmed\00", align 1
@.str.30 = private unnamed_addr constant [19 x i8] c"handshake_complete\00", align 1
@.str.31 = private unnamed_addr constant [10 x i8] c"attempted\00", align 1
@.str.32 = private unnamed_addr constant [8 x i8] c"closing\00", align 1
@.str.33 = private unnamed_addr constant [9 x i8] c"draining\00", align 1
@.str.34 = private unnamed_addr constant [7 x i8] c"closed\00", align 1

; Function Attrs: nounwind uwtable
define internal ptr @map_state_to_qlog(i32 noundef %0, i32 noundef %1, i32 noundef %2) #0 {
  %4 = alloca ptr, align 8
  %5 = alloca i32, align 4
  %6 = alloca i32, align 4
  %7 = alloca i32, align 4
  store i32 %0, ptr %5, align 4, !tbaa !10
  store i32 %1, ptr %6, align 4, !tbaa !10
  store i32 %2, ptr %7, align 4, !tbaa !10
  %8 = load i32, ptr %5, align 4, !tbaa !10
  switch i32 %8, label %9 [
    i32 0, label %10
    i32 1, label %11
    i32 2, label %20
    i32 3, label %21
    i32 4, label %22
  ]

9:                                                ; preds = %3
  br label %10

10:                                               ; preds = %3, %9
  store ptr null, ptr %4, align 8
  br label %23

11:                                               ; preds = %3
  %12 = load i32, ptr %7, align 4, !tbaa !10
  %13 = icmp ne i32 %12, 0
  br i1 %13, label %14, label %15

14:                                               ; preds = %11
  store ptr @.str.29, ptr %4, align 8
  br label %23

15:                                               ; preds = %11
  %16 = load i32, ptr %6, align 4, !tbaa !10
  %17 = icmp ne i32 %16, 0
  br i1 %17, label %18, label %19

18:                                               ; preds = %15
  store ptr @.str.30, ptr %4, align 8
  br label %23

19:                                               ; preds = %15
  store ptr @.str.31, ptr %4, align 8
  br label %23

20:                                               ; preds = %3
  store ptr @.str.32, ptr %4, align 8
  br label %23

21:                                               ; preds = %3
  store ptr @.str.33, ptr %4, align 8
  br label %23

22:                                               ; preds = %3
  store ptr @.str.34, ptr %4, align 8
  br label %23

23:                                               ; preds = %22, %21, %20, %19, %18, %14, %10
  %24 = load ptr, ptr %4, align 8
  ret ptr %24
}

; Function Attrs: nounwind uwtable
define void @ossl_qlog_event_connectivity_connection_state_updated(ptr noundef %0, i32 noundef %1, i32 noundef %2, i32 noundef %3, i32 noundef %4) #0 {
  %6 = alloca ptr, align 8
  %7 = alloca i32, align 4
  %8 = alloca i32, align 4
  %9 = alloca i32, align 4
  %10 = alloca i32, align 4
  %11 = alloca ptr, align 8
  %12 = alloca ptr, align 8
  %13 = alloca i32, align 4
  store ptr %0, ptr %6, align 8, !tbaa !3
  store i32 %1, ptr %7, align 4, !tbaa !10
  store i32 %2, ptr %8, align 4, !tbaa !10
  store i32 %3, ptr %9, align 4, !tbaa !10
  store i32 %4, ptr %10, align 4, !tbaa !10
  call void @llvm.lifetime.start.p0(i64 8, ptr %11) #5
  call void @llvm.lifetime.start.p0(i64 8, ptr %12) #5
  %14 = load ptr, ptr %6, align 8, !tbaa !3
  store ptr %14, ptr %12, align 8, !tbaa !3
  call void @llvm.lifetime.start.p0(i64 4, ptr %13) #5
  store i32 2, ptr %13, align 4, !tbaa !10
  %15 = load ptr, ptr %12, align 8, !tbaa !3
  %16 = load i32, ptr %13, align 4, !tbaa !10
  %17 = call i32 @ossl_qlog_event_try_begin(ptr noundef %15, i32 noundef %16, ptr noundef @.str, ptr noundef @.str.6, ptr noundef @.str.7)
  %18 = icmp ne i32 %17, 0
  br i1 %18, label %19, label %31

19:                                               ; preds = %5
  %20 = load i32, ptr %8, align 4, !tbaa !10
  %21 = load i32, ptr %9, align 4, !tbaa !10
  %22 = load i32, ptr %10, align 4, !tbaa !10
  %23 = call ptr @map_state_to_qlog(i32 noundef %20, i32 noundef %21, i32 noundef %22)
  store ptr %23, ptr %11, align 8, !tbaa !14
  %24 = load ptr, ptr %11, align 8, !tbaa !14
  %25 = icmp ne ptr %24, null
  br i1 %25, label %26, label %29

26:                                               ; preds = %19
  %27 = load ptr, ptr %12, align 8, !tbaa !3
  %28 = load ptr, ptr %11, align 8, !tbaa !14
  call void @ossl_qlog_str(ptr noundef %27, ptr noundef @.str.8, ptr noundef %28)
  br label %29

29:                                               ; preds = %26, %19
  %30 = load ptr, ptr %12, align 8, !tbaa !3
  call void @ossl_qlog_event_end(ptr noundef %30)
  br label %31

31:                                               ; preds = %29, %5
  call void @llvm.lifetime.end.p0(i64 4, ptr %13) #5
  call void @llvm.lifetime.end.p0(i64 8, ptr %12) #5
  call void @llvm.lifetime.end.p0(i64 8, ptr %11) #5
  ret void
}