; Function Attrs: nounwind uwtable
define void @ossl_qlog_event_connectivity_connection_state_updated(ptr noundef %0, i32 noundef %1, i32 noundef %2, i32 noundef %3, i32 noundef %4) local_unnamed_addr #0 {
  %6 = tail call i32 @ossl_qlog_event_try_begin(ptr noundef %0, i32 noundef 2, ptr noundef nonnull @.str, ptr noundef nonnull @.str.6, ptr noundef nonnull @.str.7) #3
  %.not = icmp eq i32 %6, 0
  br i1 %.not, label %13, label %7

7:                                                ; preds = %5
  switch i32 %2, label %map_state_to_qlog.exit [
    i32 4, label %11
    i32 1, label %8
    i32 2, label %12
    i32 3, label %10
  ]

8:                                                ; preds = %7
  %.not.i = icmp eq i32 %4, 0
  br i1 %.not.i, label %9, label %12

9:                                                ; preds = %8
  %.not3.i = icmp eq i32 %3, 0
  %.str.31..str.30.i = select i1 %.not3.i, ptr @.str.31, ptr @.str.30
  br label %12

10:                                               ; preds = %7
  br label %12

11:                                               ; preds = %7
  br label %12

12:                                               ; preds = %7, %10, %11, %8, %9
  %.0.i.ph = phi ptr [ %.str.31..str.30.i, %9 ], [ @.str.29, %8 ], [ @.str.34, %11 ], [ @.str.33, %10 ], [ @.str.32, %7 ]
  tail call void @ossl_qlog_str(ptr noundef %0, ptr noundef nonnull @.str.8, ptr noundef nonnull %.0.i.ph) #3
  br label %map_state_to_qlog.exit

map_state_to_qlog.exit:                           ; preds = %7, %12
  tail call void @ossl_qlog_event_end(ptr noundef %0) #3
  br label %13

13:                                               ; preds = %map_state_to_qlog.exit, %5
  ret void
}